target datalayout = "e-m:e-p270:32:32-p271:32:32-p272:64:64-i64:64-i128:128-f80:128-n8:16:32:64-S128"
target triple = "x86_64-pc-linux-gnu"

%struct.PJconsts = type { ptr, ptr, ptr, ptr, ptr, ptr, ptr, ptr, ptr, ptr, ptr, ptr, i32, ptr, ptr, ptr, ptr, ptr, ptr, ptr, ptr, double, double, double, double, double, double, double, double, double, double, double, double, double, double, double, double, double, double, double, double, double, double, i32, i32, i32, i32, i32, i32, i32, i32, i32, i32, i32, ptr, ptr, ptr, ptr, ptr, ptr, double, double, double, double, double, double, double, double, double, double, double, i32, [7 x double], i32, ptr, ptr, double, double, i32, [4 x i8], %"class.std::shared_ptr", i8, double, i8, %"class.std::__cxx11::basic_string", %"class.std::__cxx11::basic_string", %"class.std::__cxx11::basic_string", i8, %"class.std::vector", i32, %"class.std::vector.3", i32, i8, i8, i8, ptr }
%"class.std::shared_ptr" = type { %"class.std::__shared_ptr" }
%"class.std::__shared_ptr" = type { ptr, %"class.std::__shared_count" }
%"class.std::__shared_count" = type { ptr }
%"class.std::__cxx11::basic_string" = type { %"struct.std::__cxx11::basic_string<char>::_Alloc_hider", i64, %union.anon }
%"struct.std::__cxx11::basic_string<char>::_Alloc_hider" = type { ptr }
%union.anon = type { i64, [8 x i8] }
%"class.std::vector" = type { %"struct.std::_Vector_base" }
%"struct.std::_Vector_base" = type { %"struct.std::_Vector_base<osgeo::proj::operation::GridDescription, std::allocator<osgeo::proj::operation::GridDescription>>::_Vector_impl" }
%"struct.std::_Vector_base<osgeo::proj::operation::GridDescription, std::allocator<osgeo::proj::operation::GridDescription>>::_Vector_impl" = type { %"struct.std::_Vector_base<osgeo::proj::operation::GridDescription, std::allocator<osgeo::proj::operation::GridDescription>>::_Vector_impl_data" }
%"struct.std::_Vector_base<osgeo::proj::operation::GridDescription, std::allocator<osgeo::proj::operation::GridDescription>>::_Vector_impl_data" = type { ptr, ptr, ptr }
%"class.std::vector.3" = type { %"struct.std::_Vector_base.4" }
%"struct.std::_Vector_base.4" = type { %"struct.std::_Vector_base<PJCoordOperation, std::allocator<PJCoordOperation>>::_Vector_impl" }
%"struct.std::_Vector_base<PJCoordOperation, std::allocator<PJCoordOperation>>::_Vector_impl" = type { %"struct.std::_Vector_base<PJCoordOperation, std::allocator<PJCoordOperation>>::_Vector_impl_data" }
%"struct.std::_Vector_base<PJCoordOperation, std::allocator<PJCoordOperation>>::_Vector_impl_data" = type { ptr, ptr, ptr }
%"struct.(anonymous namespace)::pj_rpoly_data" = type { double, double, double, i32 }
%struct.PJ_XY = type { double, double }
%struct.PJ_LP = type { double, double }

; Function Attrs: mustprogress nounwind uwtable
define internal { double, double } @_ZL15rpoly_s_forward5PJ_LPP8PJconsts(double %0, double %1, ptr noundef %2) #6 {
  %4 = alloca %struct.PJ_XY, align 8
  %5 = alloca %struct.PJ_LP, align 8
  %6 = alloca ptr, align 8
  %7 = alloca ptr, align 8
  %8 = alloca double, align 8
  %9 = getelementptr inbounds nuw { double, double }, ptr %5, i32 0, i32 0
  store double %0, ptr %9, align 8
  %10 = getelementptr inbounds nuw { double, double }, ptr %5, i32 0, i32 1
  store double %1, ptr %10, align 8
  store ptr %2, ptr %6, align 8, !tbaa !3
  call void @llvm.memset.p0.i64(ptr align 8 %4, i8 0, i64 16, i1 false)
  call void @llvm.lifetime.start.p0(i64 8, ptr %7) #8
  %11 = load ptr, ptr %6, align 8, !tbaa !3
  %12 = getelementptr inbounds nuw %struct.PJconsts, ptr %11, i32 0, i32 11
  %13 = load ptr, ptr %12, align 8, !tbaa !43
  store ptr %13, ptr %7, align 8, !tbaa !41
  call void @llvm.lifetime.start.p0(i64 8, ptr %8) #8
  %14 = load ptr, ptr %7, align 8, !tbaa !41
  %15 = getelementptr inbounds nuw %"struct.(anonymous namespace)::pj_rpoly_data", ptr %14, i32 0, i32 3
  %16 = load i32, ptr %15, align 8, !tbaa !49
  %17 = icmp ne i32 %16, 0
  br i1 %17, label %18, label %30

18:                                               ; preds = %3
  %19 = getelementptr inbounds nuw %struct.PJ_LP, ptr %5, i32 0, i32 0
  %20 = load double, ptr %19, align 8, !tbaa !55
  %21 = load ptr, ptr %7, align 8, !tbaa !41
  %22 = getelementptr inbounds nuw %"struct.(anonymous namespace)::pj_rpoly_data", ptr %21, i32 0, i32 2
  %23 = load double, ptr %22, align 8, !tbaa !51
  %24 = fmul double %20, %23
  %25 = call double @tan(double noundef %24) #8, !tbaa !50
  %26 = load ptr, ptr %7, align 8, !tbaa !41
  %27 = getelementptr inbounds nuw %"struct.(anonymous namespace)::pj_rpoly_data", ptr %26, i32 0, i32 1
  %28 = load double, ptr %27, align 8, !tbaa !52
  %29 = fmul double %25, %28
  store double %29, ptr %8, align 8, !tbaa !57
  br label %34

30:                                               ; preds = %3
  %31 = getelementptr inbounds nuw %struct.PJ_LP, ptr %5, i32 0, i32 0
  %32 = load double, ptr %31, align 8, !tbaa !55
  %33 = fmul double 5.000000e-01, %32
  store double %33, ptr %8, align 8, !tbaa !57
  br label %34

34:                                               ; preds = %30, %18
  %35 = getelementptr inbounds nuw %struct.PJ_LP, ptr %5, i32 0, i32 1
  %36 = load double, ptr %35, align 8, !tbaa !58
  %37 = call double @llvm.fabs.f64(double %36)
  %38 = fcmp olt double %37, 1.000000e-09
  br i1 %38, label %39, label %49

39:                                               ; preds = %34
  %40 = load double, ptr %8, align 8, !tbaa !57
  %41 = load double, ptr %8, align 8, !tbaa !57
  %42 = fadd double %40, %41
  %43 = getelementptr inbounds nuw %struct.PJ_XY, ptr %4, i32 0, i32 0
  store double %42, ptr %43, align 8, !tbaa !59
  %44 = load ptr, ptr %6, align 8, !tbaa !3
  %45 = getelementptr inbounds nuw %struct.PJconsts, ptr %44, i32 0, i32 61
  %46 = load double, ptr %45, align 8, !tbaa !61
  %47 = fneg double %46
  %48 = getelementptr inbounds nuw %struct.PJ_XY, ptr %4, i32 0, i32 1
  store double %47, ptr %48, align 8, !tbaa !62
  br label %81

49:                                               ; preds = %34
  %50 = getelementptr inbounds nuw %struct.PJ_LP, ptr %5, i32 0, i32 1
  %51 = load double, ptr %50, align 8, !tbaa !58
  %52 = call double @tan(double noundef %51) #8, !tbaa !50
  %53 = fdiv double 1.000000e+00, %52
  %54 = getelementptr inbounds nuw %struct.PJ_XY, ptr %4, i32 0, i32 1
  store double %53, ptr %54, align 8, !tbaa !62
  %55 = load double, ptr %8, align 8, !tbaa !57
  %56 = getelementptr inbounds nuw %struct.PJ_LP, ptr %5, i32 0, i32 1
  %57 = load double, ptr %56, align 8, !tbaa !58
  %58 = call double @sin(double noundef %57) #8, !tbaa !50
  %59 = fmul double %55, %58
  %60 = call double @atan(double noundef %59) #8, !tbaa !50
  %61 = fmul double 2.000000e+00, %60
  store double %61, ptr %8, align 8, !tbaa !57
  %62 = load double, ptr %8, align 8, !tbaa !57
  %63 = call double @sin(double noundef %62) #8, !tbaa !50
  %64 = getelementptr inbounds nuw %struct.PJ_XY, ptr %4, i32 0, i32 1
  %65 = load double, ptr %64, align 8, !tbaa !62
  %66 = fmul double %63, %65
  %67 = getelementptr inbounds nuw %struct.PJ_XY, ptr %4, i32 0, i32 0
  store double %66, ptr %67, align 8, !tbaa !59
  %68 = getelementptr inbounds nuw %struct.PJ_LP, ptr %5, i32 0, i32 1
  %69 = load double, ptr %68, align 8, !tbaa !58
  %70 = load ptr, ptr %6, align 8, !tbaa !3
  %71 = getelementptr inbounds nuw %struct.PJconsts, ptr %70, i32 0, i32 61
  %72 = load double, ptr %71, align 8, !tbaa !61
  %73 = fsub double %69, %72
  %74 = load double, ptr %8, align 8, !tbaa !57
  %75 = call double @cos(double noundef %74) #8, !tbaa !50
  %76 = fsub double 1.000000e+00, %75
  %77 = getelementptr inbounds nuw %struct.PJ_XY, ptr %4, i32 0, i32 1
  %78 = load double, ptr %77, align 8, !tbaa !62
  %79 = call double @llvm.fmuladd.f64(double %76, double %78, double %73)
  %80 = getelementptr inbounds nuw %struct.PJ_XY, ptr %4, i32 0, i32 1
  store double %79, ptr %80, align 8, !tbaa !62
  br label %81

81:                                               ; preds = %49, %39
  call void @llvm.lifetime.end.p0(i64 8, ptr %8) #8
  call void @llvm.lifetime.end.p0(i64 8, ptr %7) #8
  %82 = load { double, double }, ptr %4, align 8
  ret { double, double } %82
}