; Function Attrs: mustprogress nofree nounwind willreturn memory(readwrite, inaccessiblemem: write) uwtable
define internal { double, double } @_ZL15rpoly_s_forward5PJ_LPP8PJconsts(double %0, double %1, ptr noundef readonly captures(none) %2) #5 {
  %4 = getelementptr inbounds nuw i8, ptr %2, i64 88
  %5 = load ptr, ptr %4, align 8, !tbaa !3
  %6 = getelementptr inbounds nuw i8, ptr %5, i64 24
  %7 = load i32, ptr %6, align 8, !tbaa !40
  %.not = icmp eq i32 %7, 0
  br i1 %.not, label %16, label %8

8:                                                ; preds = %3
  %9 = getelementptr inbounds nuw i8, ptr %5, i64 16
  %10 = load double, ptr %9, align 8, !tbaa !42
  %11 = fmul double %0, %10
  %12 = tail call double @tan(double noundef %11) #7, !tbaa !41
  %13 = getelementptr inbounds nuw i8, ptr %5, i64 8
  %14 = load double, ptr %13, align 8, !tbaa !43
  %15 = fmul double %12, %14
  br label %18

16:                                               ; preds = %3
  %17 = fmul double %0, 5.000000e-01
  br label %18

18:                                               ; preds = %16, %8
  %.0 = phi double [ %15, %8 ], [ %17, %16 ]
  %19 = tail call double @llvm.fabs.f64(double %1)
  %20 = fcmp olt double %19, 1.000000e-09
  br i1 %20, label %21, label %26

21:                                               ; preds = %18
  %22 = fadd double %.0, %.0
  %23 = getelementptr inbounds nuw i8, ptr %2, i64 448
  %24 = load double, ptr %23, align 8, !tbaa !51
  %25 = fneg double %24
  br label %41

26:                                               ; preds = %18
  %27 = tail call double @tan(double noundef %1) #7, !tbaa !41
  %28 = fdiv double 1.000000e+00, %27
  %29 = tail call double @sin(double noundef %1) #7, !tbaa !41
  %30 = fmul double %.0, %29
  %31 = tail call double @atan(double noundef %30) #7, !tbaa !41
  %32 = fmul double %31, 2.000000e+00
  %33 = tail call double @sin(double noundef %32) #7, !tbaa !41
  %34 = fmul double %28, %33
  %35 = getelementptr inbounds nuw i8, ptr %2, i64 448
  %36 = load double, ptr %35, align 8, !tbaa !51
  %37 = fsub double %1, %36
  %38 = tail call double @cos(double noundef %32) #7, !tbaa !41
  %39 = fsub double 1.000000e+00, %38
  %40 = tail call double @llvm.fmuladd.f64(double %39, double %28, double %37)
  br label %41

41:                                               ; preds = %26, %21
  %.sroa.4.0 = phi double [ %25, %21 ], [ %40, %26 ]
  %.sroa.015.0 = phi double [ %22, %21 ], [ %34, %26 ]
  %.fca.0.insert = insertvalue { double, double } poison, double %.sroa.015.0, 0
  %.fca.1.insert = insertvalue { double, double } %.fca.0.insert, double %.sroa.4.0, 1
  ret { double, double } %.fca.1.insert
}